target datalayout = "e-m:e-p270:32:32-p271:32:32-p272:64:64-i64:64-i128:128-f80:128-n8:16:32:64-S128"
target triple = "x86_64-pc-linux-gnu"

%struct.H5Z_cb_t = type { ptr, ptr }
%struct.H5T_vlen_alloc_info_t = type { ptr, ptr, ptr, ptr }
%struct.H5T_conv_cb_t = type { ptr, ptr }
%struct.H5CX_node_t = type { %struct.H5CX_t, ptr }
%struct.H5CX_t = type { i64, ptr, i64, ptr, i64, ptr, i64, ptr, i64, ptr, i64, ptr, i64, i32, i64, i8, ptr, i8, ptr, i8, i32, i8, [3 x double], i8, i64, i8, i32, i8, %struct.H5Z_cb_t, i8, ptr, i8, %struct.H5T_vlen_alloc_info_t, i8, %struct.H5T_conv_cb_t, i8, i32, i8, i8, i8, i32, i8, i8, i32, i8, i8, i32, i8, i32, i8, i64, i8, i8, i8, i8, i8, ptr, i8, ptr, i8, i32, i8, i32, i8, %struct.H5VL_connector_prop_t, i8, ptr, i8 }
%struct.H5VL_connector_prop_t = type { i64, ptr }

@H5P_LST_DATASET_XFER_ID_g = external global i64, align 8
@H5P_LST_LINK_CREATE_ID_g = external global i64, align 8
@H5P_LST_LINK_ACCESS_ID_g = external global i64, align 8
@H5P_LST_DATASET_CREATE_ID_g = external global i64, align 8
@H5P_LST_DATASET_ACCESS_ID_g = external global i64, align 8
@H5P_LST_FILE_ACCESS_ID_g = external global i64, align 8
@H5CX_head_g = internal global ptr null, align 8

; Function Attrs: nounwind uwtable
define internal void @H5CX__push_common(ptr noundef %0) #0 {
  %2 = alloca ptr, align 8
  %3 = alloca ptr, align 8
  store ptr %0, ptr %2, align 8
  store ptr null, ptr %3, align 8
  store ptr @H5CX_head_g, ptr %3, align 8
  %4 = load i64, ptr @H5P_LST_DATASET_XFER_ID_g, align 8
  %5 = load ptr, ptr %2, align 8
  %6 = getelementptr inbounds %struct.H5CX_node_t, ptr %5, i32 0, i32 0
  %7 = getelementptr inbounds %struct.H5CX_t, ptr %6, i32 0, i32 0
  store i64 %4, ptr %7, align 8
  %8 = load i64, ptr @H5P_LST_DATASET_CREATE_ID_g, align 8
  %9 = load ptr, ptr %2, align 8
  %10 = getelementptr inbounds %struct.H5CX_node_t, ptr %9, i32 0, i32 0
  %11 = getelementptr inbounds %struct.H5CX_t, ptr %10, i32 0, i32 6
  store i64 %8, ptr %11, align 8
  %12 = load i64, ptr @H5P_LST_DATASET_ACCESS_ID_g, align 8
  %13 = load ptr, ptr %2, align 8
  %14 = getelementptr inbounds %struct.H5CX_node_t, ptr %13, i32 0, i32 0
  %15 = getelementptr inbounds %struct.H5CX_t, ptr %14, i32 0, i32 8
  store i64 %12, ptr %15, align 8
  %16 = load i64, ptr @H5P_LST_LINK_CREATE_ID_g, align 8
  %17 = load ptr, ptr %2, align 8
  %18 = getelementptr inbounds %struct.H5CX_node_t, ptr %17, i32 0, i32 0
  %19 = getelementptr inbounds %struct.H5CX_t, ptr %18, i32 0, i32 2
  store i64 %16, ptr %19, align 8
  %20 = load i64, ptr @H5P_LST_LINK_ACCESS_ID_g, align 8
  %21 = load ptr, ptr %2, align 8
  %22 = getelementptr inbounds %struct.H5CX_node_t, ptr %21, i32 0, i32 0
  %23 = getelementptr inbounds %struct.H5CX_t, ptr %22, i32 0, i32 4
  store i64 %20, ptr %23, align 8
  %24 = load i64, ptr @H5P_LST_FILE_ACCESS_ID_g, align 8
  %25 = load ptr, ptr %2, align 8
  %26 = getelementptr inbounds %struct.H5CX_node_t, ptr %25, i32 0, i32 0
  %27 = getelementptr inbounds %struct.H5CX_t, ptr %26, i32 0, i32 10
  store i64 %24, ptr %27, align 8
  %28 = load ptr, ptr %2, align 8
  %29 = getelementptr inbounds %struct.H5CX_node_t, ptr %28, i32 0, i32 0
  %30 = getelementptr inbounds %struct.H5CX_t, ptr %29, i32 0, i32 12
  store i64 0, ptr %30, align 8
  %31 = load ptr, ptr %2, align 8
  %32 = getelementptr inbounds %struct.H5CX_node_t, ptr %31, i32 0, i32 0
  %33 = getelementptr inbounds %struct.H5CX_t, ptr %32, i32 0, i32 13
  store i32 1, ptr %33, align 8
  %34 = load ptr, ptr %3, align 8
  %35 = load ptr, ptr %34, align 8
  %36 = load ptr, ptr %2, align 8
  %37 = getelementptr inbounds %struct.H5CX_node_t, ptr %36, i32 0, i32 1
  store ptr %35, ptr %37, align 8
  %38 = load ptr, ptr %2, align 8
  %39 = load ptr, ptr %3, align 8
  store ptr %38, ptr %39, align 8
  ret void
}

; Function Attrs: nounwind uwtable
define void @H5CX_push_special() #0 {
  %1 = alloca ptr, align 8
  store ptr null, ptr %1, align 8
  %2 = call noalias ptr @calloc(i64 noundef 1, i64 noundef 480) #7
  store ptr %2, ptr %1, align 8
  %3 = load ptr, ptr %1, align 8
  call void @H5CX__push_common(ptr noundef %3)
  ret void
}