; Function Attrs: mustprogress nofree nounwind willreturn memory(readwrite, argmem: none) uwtable
define void @H5CX_push_special() local_unnamed_addr #6 {
  %1 = tail call noalias dereferenceable_or_null(480) ptr @calloc(i64 noundef 1, i64 noundef 480) #14
  %2 = load i64, ptr @H5P_LST_DATASET_XFER_ID_g, align 8
  store i64 %2, ptr %1, align 8
  %3 = load i64, ptr @H5P_LST_DATASET_CREATE_ID_g, align 8
  %4 = getelementptr inbounds i8, ptr %1, i64 48
  store i64 %3, ptr %4, align 8
  %5 = load i64, ptr @H5P_LST_DATASET_ACCESS_ID_g, align 8
  %6 = getelementptr inbounds i8, ptr %1, i64 64
  store i64 %5, ptr %6, align 8
  %7 = load i64, ptr @H5P_LST_LINK_CREATE_ID_g, align 8
  %8 = getelementptr inbounds i8, ptr %1, i64 16
  store i64 %7, ptr %8, align 8
  %9 = load i64, ptr @H5P_LST_LINK_ACCESS_ID_g, align 8
  %10 = getelementptr inbounds i8, ptr %1, i64 32
  store i64 %9, ptr %10, align 8
  %11 = load i64, ptr @H5P_LST_FILE_ACCESS_ID_g, align 8
  %12 = getelementptr inbounds i8, ptr %1, i64 80
  store i64 %11, ptr %12, align 8
  %13 = getelementptr inbounds i8, ptr %1, i64 104
  store i32 1, ptr %13, align 8
  %14 = load ptr, ptr @H5CX_head_g, align 8
  %15 = getelementptr inbounds i8, ptr %1, i64 472
  store ptr %14, ptr %15, align 8
  store ptr %1, ptr @H5CX_head_g, align 8
  ret void
}